target datalayout = "e-m:e-p270:32:32-p271:32:32-p272:64:64-i64:64-i128:128-f80:128-n8:16:32:64-S128"
target triple = "x86_64-pc-linux-gnu"

%struct._psqlSettings = type { ptr, i32, ptr, i8, ptr, ptr, %struct.printQueryOpt, ptr, ptr, ptr, i8, i8, i32, i32, ptr, ptr, i8, [4 x ptr], i8, i32, ptr, i8, i32, ptr, ptr, i64, i64, i8, ptr, ptr, ptr, i8, i8, i8, i8, i8, i8, i8, i32, i32, i32, i32, i32, i32, i32, i32, ptr, ptr, ptr, i32, i8, i32 }
%struct.printQueryOpt = type { %struct.printTableOpt, ptr, ptr, ptr, i8, ptr, i32 }
%struct.printTableOpt = type { i32, i16, i32, i32, i16, i16, i32, i8, i8, i8, i8, i64, ptr, %struct.separator, %struct.separator, [2 x i8], i8, ptr, i32, i32, i32, i32, i32, i32 }
%struct.separator = type { ptr, i8 }

@pset = external global %struct._psqlSettings, align 8
@.str.233 = private unnamed_addr constant [1 x i8] zeroinitializer, align 1

; Function Attrs: nounwind uwtable
define internal void @ignore_slash_options(ptr noundef %0) #0 {
  %2 = alloca ptr, align 8
  %3 = alloca ptr, align 8
  store ptr %0, ptr %2, align 8
  call void @llvm.lifetime.start.p0(i64 8, ptr %3) #10
  br label %4

4:                                                ; preds = %8, %1
  %5 = load ptr, ptr %2, align 8
  %6 = call ptr @psql_scan_slash_option(ptr noundef %5, i32 noundef 0, ptr noundef null, i1 noundef zeroext false)
  store ptr %6, ptr %3, align 8
  %7 = icmp ne ptr %6, null
  br i1 %7, label %8, label %10

8:                                                ; preds = %4
  %9 = load ptr, ptr %3, align 8
  call void @free(ptr noundef %9) #10
  br label %4, !llvm.loop !18

10:                                               ; preds = %4
  call void @llvm.lifetime.end.p0(i64 8, ptr %3) #10
  ret void
}

; Function Attrs: nounwind uwtable
define internal i32 @exec_command_set(ptr noundef %0, i1 noundef zeroext %1) #0 {
  %3 = alloca ptr, align 8
  %4 = alloca i8, align 1
  %5 = alloca i8, align 1
  %6 = alloca ptr, align 8
  %7 = alloca ptr, align 8
  %8 = alloca ptr, align 8
  store ptr %0, ptr %3, align 8
  %9 = zext i1 %1 to i8
  store i8 %9, ptr %4, align 1
  call void @llvm.lifetime.start.p0(i64 1, ptr %5) #10
  store i8 1, ptr %5, align 1
  %10 = load i8, ptr %4, align 1, !range !4, !noundef !5
  %11 = trunc i8 %10 to i1
  br i1 %11, label %12, label %58

12:                                               ; preds = %2
  call void @llvm.lifetime.start.p0(i64 8, ptr %6) #10
  %13 = load ptr, ptr %3, align 8
  %14 = call ptr @psql_scan_slash_option(ptr noundef %13, i32 noundef 0, ptr noundef null, i1 noundef zeroext false)
  store ptr %14, ptr %6, align 8
  %15 = load ptr, ptr %6, align 8
  %16 = icmp ne ptr %15, null
  br i1 %16, label %19, label %17

17:                                               ; preds = %12
  %18 = load ptr, ptr getelementptr inbounds nuw (%struct._psqlSettings, ptr @pset, i32 0, i32 29), align 8
  call void @PrintVariables(ptr noundef %18)
  store i8 1, ptr %5, align 1
  br label %56

19:                                               ; preds = %12
  call void @llvm.lifetime.start.p0(i64 8, ptr %7) #10
  call void @llvm.lifetime.start.p0(i64 8, ptr %8) #10
  %20 = load ptr, ptr %3, align 8
  %21 = call ptr @psql_scan_slash_option(ptr noundef %20, i32 noundef 0, ptr noundef null, i1 noundef zeroext false)
  store ptr %21, ptr %8, align 8
  %22 = load ptr, ptr %8, align 8
  %23 = icmp ne ptr %22, null
  br i1 %23, label %24, label %26

24:                                               ; preds = %19
  %25 = load ptr, ptr %8, align 8
  br label %27

26:                                               ; preds = %19
  br label %27

27:                                               ; preds = %26, %24
  %28 = phi ptr [ %25, %24 ], [ @.str.233, %26 ]
  %29 = call ptr @pg_strdup(ptr noundef %28)
  store ptr %29, ptr %7, align 8
  %30 = load ptr, ptr %8, align 8
  call void @free(ptr noundef %30) #10
  br label %31

31:                                               ; preds = %35, %27
  %32 = load ptr, ptr %3, align 8
  %33 = call ptr @psql_scan_slash_option(ptr noundef %32, i32 noundef 0, ptr noundef null, i1 noundef zeroext false)
  store ptr %33, ptr %8, align 8
  %34 = icmp ne ptr %33, null
  br i1 %34, label %35, label %48

35:                                               ; preds = %31
  %36 = load ptr, ptr %7, align 8
  %37 = load ptr, ptr %7, align 8
  %38 = call i64 @strlen(ptr noundef %37) #11
  %39 = load ptr, ptr %8, align 8
  %40 = call i64 @strlen(ptr noundef %39) #11
  %41 = add i64 %38, %40
  %42 = add i64 %41, 1
  %43 = call ptr @pg_realloc(ptr noundef %36, i64 noundef %42)
  store ptr %43, ptr %7, align 8
  %44 = load ptr, ptr %7, align 8
  %45 = load ptr, ptr %8, align 8
  %46 = call ptr @strcat(ptr noundef %44, ptr noundef %45) #10
  %47 = load ptr, ptr %8, align 8
  call void @free(ptr noundef %47) #10
  br label %31, !llvm.loop !16

48:                                               ; preds = %31
  %49 = load ptr, ptr getelementptr inbounds nuw (%struct._psqlSettings, ptr @pset, i32 0, i32 29), align 8
  %50 = load ptr, ptr %6, align 8
  %51 = load ptr, ptr %7, align 8
  %52 = call zeroext i1 @SetVariable(ptr noundef %49, ptr noundef %50, ptr noundef %51)
  br i1 %52, label %54, label %53

53:                                               ; preds = %48
  store i8 0, ptr %5, align 1
  br label %54

54:                                               ; preds = %53, %48
  %55 = load ptr, ptr %7, align 8
  call void @free(ptr noundef %55) #10
  call void @llvm.lifetime.end.p0(i64 8, ptr %8) #10
  call void @llvm.lifetime.end.p0(i64 8, ptr %7) #10
  br label %56

56:                                               ; preds = %54, %17
  %57 = load ptr, ptr %6, align 8
  call void @free(ptr noundef %57) #10
  call void @llvm.lifetime.end.p0(i64 8, ptr %6) #10
  br label %60

58:                                               ; preds = %2
  %59 = load ptr, ptr %3, align 8
  call void @ignore_slash_options(ptr noundef %59)
  br label %60

60:                                               ; preds = %58, %56
  %61 = load i8, ptr %5, align 1, !range !4, !noundef !5
  %62 = trunc i8 %61 to i1
  %63 = select i1 %62, i32 2, i32 5
  call void @llvm.lifetime.end.p0(i64 1, ptr %5) #10
  ret i32 %63
}