; Function Attrs: nounwind uwtable
define internal fastcc range(i32 2, 6) i32 @exec_command_set(ptr noundef %0, i1 noundef zeroext %1) unnamed_addr #0 {
  %3 = tail call ptr @psql_scan_slash_option(ptr noundef %0, i32 noundef 0, ptr noundef null, i1 noundef zeroext false) #16
  %.not = icmp eq ptr %3, null
  br i1 %1, label %4, label %23

4:                                                ; preds = %2
  br i1 %.not, label %5, label %7

5:                                                ; preds = %4
  %6 = load ptr, ptr getelementptr inbounds nuw (i8, ptr @pset, i64 384), align 8
  tail call void @PrintVariables(ptr noundef %6) #16
  br label %22

7:                                                ; preds = %4
  %8 = tail call ptr @psql_scan_slash_option(ptr noundef %0, i32 noundef 0, ptr noundef null, i1 noundef zeroext false) #16
  %.not22 = icmp eq ptr %8, null
  %9 = select i1 %.not22, ptr @.str.233, ptr %8
  %10 = tail call ptr @pg_strdup(ptr noundef nonnull %9) #16
  tail call void @free(ptr noundef %8) #16
  %11 = tail call ptr @psql_scan_slash_option(ptr noundef %0, i32 noundef 0, ptr noundef null, i1 noundef zeroext false) #16
  %.not2324 = icmp eq ptr %11, null
  br i1 %.not2324, label %._crit_edge, label %.lr.ph

.lr.ph:                                           ; preds = %7, %.lr.ph
  %12 = phi ptr [ %19, %.lr.ph ], [ %11, %7 ]
  %.025 = phi ptr [ %17, %.lr.ph ], [ %10, %7 ]
  %13 = tail call i64 @strlen(ptr noundef nonnull dereferenceable(1) %.025) #17
  %14 = tail call i64 @strlen(ptr noundef nonnull dereferenceable(1) %12) #17
  %15 = add i64 %13, 1
  %16 = add i64 %15, %14
  %17 = tail call ptr @pg_realloc(ptr noundef nonnull %.025, i64 noundef %16) #16
  %18 = tail call ptr @strcat(ptr noundef nonnull dereferenceable(1) %17, ptr noundef nonnull dereferenceable(1) %12) #16
  tail call void @free(ptr noundef nonnull %12) #16
  %19 = tail call ptr @psql_scan_slash_option(ptr noundef %0, i32 noundef 0, ptr noundef null, i1 noundef zeroext false) #16
  %.not23 = icmp eq ptr %19, null
  br i1 %.not23, label %._crit_edge, label %.lr.ph, !llvm.loop !24

._crit_edge:                                      ; preds = %.lr.ph, %7
  %.0.lcssa = phi ptr [ %10, %7 ], [ %17, %.lr.ph ]
  %20 = load ptr, ptr getelementptr inbounds nuw (i8, ptr @pset, i64 384), align 8
  %21 = tail call zeroext i1 @SetVariable(ptr noundef %20, ptr noundef nonnull %3, ptr noundef %.0.lcssa) #16
  %spec.select = select i1 %21, i32 2, i32 5
  tail call void @free(ptr noundef %.0.lcssa) #16
  br label %22

22:                                               ; preds = %._crit_edge, %5
  %.019 = phi i32 [ %spec.select, %._crit_edge ], [ 2, %5 ]
  tail call void @free(ptr noundef %3) #16
  br label %ignore_slash_options.exit

23:                                               ; preds = %2
  br i1 %.not, label %ignore_slash_options.exit, label %.lr.ph.i

.lr.ph.i:                                         ; preds = %23, %.lr.ph.i
  %24 = phi ptr [ %25, %.lr.ph.i ], [ %3, %23 ]
  tail call void @free(ptr noundef nonnull %24) #16
  %25 = tail call ptr @psql_scan_slash_option(ptr noundef %0, i32 noundef 0, ptr noundef null, i1 noundef zeroext false) #16
  %.not.i = icmp eq ptr %25, null
  br i1 %.not.i, label %ignore_slash_options.exit, label %.lr.ph.i, !llvm.loop !10

ignore_slash_options.exit:                        ; preds = %.lr.ph.i, %23, %22
  %.2 = phi i32 [ %.019, %22 ], [ 2, %23 ], [ 2, %.lr.ph.i ]
  ret i32 %.2
}